(dp0
S'question_sets'
p1
(lp2
(lp3
S'Male'
p4
aa(lp5
S'Female'
p6
aa(lp7
VMontgomery
p8
aVNewark
p9
aVMartinez
p10
aVShreveport
p11
aVCarbon Glow, Kentucky
p12
aVQueens
p13
aVOakridge
p14
aVEast Orange
p15
aVIola
p16
aVMedicine Lodge
p17
aVWinchester
p18
aVPrentice
p19
aVNew York City
p20
aVUnited States of America
p21
aVThe Bronx
p22
aVBoston
p23
aVWyomissing
p24
aVIndianapolis
p25
aVBrooklyn
p26
aVLincoln
p27
aVLittle Falls
p28
aVDetroit
p29
aVNew Orleans
p30
aVSnoqualmie Falls
p31
aVNotasulga
p32
aVJersey City
p33
aVBaltimore
p34
aVHouston
p35
aVPhiladelphia
p36
aVDes Moines
p37
aVSchenectady
p38
aa(lp39
VFitzgerald
p40
aVSan Francisco
p41
aVMedicine Lodge
p42
aVWinchester
p43
aVPrentice
p44
aVLos Angeles
p45
aVHot Springs
p46
aVKalihi
p47
aVEmporia
p48
aVSnoqualmie Falls
p49
aa(lp50
VWalkerton
p51
aVSunderland
p52
aVWest St. Paul
p53
aVToronto
p54
aVIona Station, Ontario
p55
aa(lp56
VWalkerton
p57
aVSunderland
p58
aVWest St. Paul
p59
aVAthens
p60
aVAngri
p61
aVHampstead
p62
aVReggio Emilia
p63
aVHamburg
p64
aVLondon
p65
aVSouthampton
p66
aVTyldesley
p67
aVArmley
p68
aVForest Hill, London
p69
aVGlanton
p70
aVLondon Borough of Camden
p71
aVMill Hill
p72
aVManchester
p73
aa(lp74
VBudapest
p75
aVValuysky District
p76
aa(lp77
VBelfast
p78
aVNes aan de Amstel
p79
aVEdinburgh
p80
aVFribourg
p81
aVSchiedam
p82
aVDublin
p83
aVUllapool
p84
aa(lp85
VIstanbul
p86
aVAleppo
p87
aVAnkara
p88
aVMemphis
p89
aVCairo
p90
aa(lp91
VManila
p92
aVPort Said
p93
aVRaipur
p94
aVBangkok
p95
aVSydney
p96
aVKolkata
p97
aVAsakusa, Tokyo
p98
aVHong Kong
p99
aVKushiro
p100
aVOgwashi-Uku
p101
aVBelgrade
p102
aVRiyadh
p103
aVRed Rock
p104
aVSerowe
p105
aa(lp106
VMexico City
p107
aVArequipa
p108
aVHeredia
p109
aVLima
p110
aa(lp111
VTurkey
p112
aVItaly
p113
aVSerbia
p114
aVScotland
p115
aVRepublic of Ireland
p116
aVGermany
p117
aVSpain
p118
aVNetherlands
p119
aVNorthern Ireland
p120
aVHungary
p121
aVSwitzerland
p122
aVSoviet Union
p123
aVEngland
p124
aVUnited Kingdom
p125
aVGreece
p126
aa(lp127
VSaudi Arabia
p128
aVThailand
p129
aVPhilippines
p130
aVIndia
p131
aVJapan
p132
aa(lp133
VCanada
p134
aVCosta Rica
p135
aVPeru
p136
aVUnited States of America
p137
aVMexico
p138
aa(lp139
VNigeria
p140
aVEgypt
p141
aVBotswana
p142
aVSyria
p143
aa(lp144
VAustralia
p145
aa(lp146
VAssociate degree
p147
aVSecondary education
p148
aa(lp149
VBachelor of Business
p150
aVBachelor of Architecture
p151
aVBachelor of Laws
p152
aVBachelor's degree
p153
aVBachelor of Science
p154
aVBachelor of Medicine, Bachelor of Surgery
p155
aVBachelor of Economics
p156
aVBachelors in literature
p157
aVBachelor of Philosophy
p158
aVBachelor of Arts
p159
aVBachelor of Music
p160
aa(lp161
VMaster of Economics
p162
aVMaster's Degree
p163
aVMaster of Public Administration
p164
aVMaster of Arts
p165
aVMBA
p166
aVMaster of Urban Planning
p167
aa(lp168
VLaw degree
p169
aVJuris Doctor
p170
aVDoctorate
p171
aVPhD
p172
aVDoctor of Medicine
p173
aa(lp174
VFilm Editor
p175
aVTelevision director
p176
aVTheatrical producer
p177
aVRadio personality
p178
aVActor
p179
aVFilm Score Composer
p180
aVTheatre Director
p181
aVDesigner
p182
aVVoice acting
p183
aVCinematographer
p184
aVFilm director
p185
aVTelevision producer
p186
aVFilm Producer
p187
aa(lp188
VGuitarist
p189
aVPhotographer
p190
aVViolinist
p191
aVConductor
p192
aVPoet
p193
aVMusic Director
p194
aVLyricist
p195
aVComposer
p196
aVMusician
p197
aVDancer
p198
aVSculptor
p199
aVSongwriter
p200
aVSinger
p201
aVArtist
p202
aVVisual Artist
p203
aVArchitect
p204
aVPlaywright
p205
aa(lp206
VSociologist
p207
aVHistorian
p208
aVActivist
p209
aVChemist
p210
aVPhysicist
p211
aVMathematician
p212
aVProfessor
p213
aVAnthropologist
p214
aVScientist
p215
aVEconomist
p216
aa(lp217
VBaseball player
p218
aVHorse trainer
p219
aa(lp220
VAuthor
p221
aVWriter
p222
aVFood critic
p223
aVCommentator
p224
aVEssayist
p225
aVTranslator
p226
aVScreenwriter
p227
aVSpeechwriter
p228
aVLawyer
p229
aVBarrister
p230
aVSocial Critic
p231
aVPresenter
p232
aVJournalist
p233
aVFilm critic
p234
aVTeacher
p235
aVLiterary critic
p236
aVNovelist
p237
aa(lp238
VPhysician
p239
aVMedical Doctor
p240
aVSurgeon
p241
aa(lp242
VFinancier
p243
aVEntrepreneur
p244
aVBusinessperson
p245
aVIndustrialist
p246
aVInvestor
p247
aa(lp248
VArmy officer
p249
aVPolitician
p250
aVInformation systems technician
p251
aVChef
p252
aVSoldier
p253
aVAstronaut
p254
aVDemocracy activist
p255
aa(lp256
V934-05-09
p257
aV891-01-07
p258
aV930-01-19
p259
aV922-09-08
p260
aV938-08-07
p261
aV916-03-12
p262
aV946-12-19
p263
aV921-10-16
p264
aV929-02-28
p265
aV917-09-04
p266
aV939-08-30
p267
aV934-04-07
p268
aV930-07-01
p269
aV930-04-09
p270
aV938-08-19
p271
aV943-12-17
p272
aV920-12-13
p273
aV913-09-03
p274
aV922-02-26
p275
aV914-02-26
p276
aV926-06-23
p277
aV935-06-13
p278
aV918-05-27
p279
aV927-07-03
p280
aV936-05-07
p281
aV910-10-10
p282
aV931-03-15
p283
aV936-03-28
p284
aV914-01-15
p285
aV917-03-31
p286
aV933-08-30
p287
aV905-09-07
p288
aV913-03-29
p289
aV926-06-10
p290
aV911-01-15
p291
aV918-06-19
p292
aV904-05-10
p293
aV921-03-16
p294
aV931-01-09
p295
aV921-07-01
p296
aV917-03-01
p297
aV931-07-11
p298
aV914-05-31
p299
aV923-09-01
p300
aV919-02-10
p301
aV916-09-17
p302
aV918-11-03
p303
aV920-06-11
p304
aV907-04-21
p305
aV933-06-06
p306
aV912-10-21
p307
aV917-08-22
p308
aV930-07-27
p309
aV928-10-03
p310
aV926-01-13
p311
aV940-07-15
p312
aV947-06-15
p313
aV908-11-16
p314
aV927-09-27
p315
aV924-12-12
p316
aV921-08-10
p317
aV908-10-15
p318
aV928-02-25
p319
aV949-07-29
p320
aV920-09-03
p321
aV928-05-08
p322
aV923-07-28
p323
aV926-02-28
p324
aV915-05-30
p325
aV928-04-29
p326
aV905-10-02
p327
aV930-01-30
p328
aV934-10-17
p329
aV946-10-16
p330
aV908-12-20
p331
aV936-06-21
p332
aV920-09-17
p333
aV920-08-06
p334
aV913-07-13
p335
aV907-08-03
p336
aV914-11-25
p337
aV928-08-27
p338
aV934-11-03
p339
aV908-02-26
p340
aa(lp341
g258
ag260
ag262
ag264
ag265
ag266
ag273
ag274
ag275
ag276
ag277
ag279
ag280
ag282
ag285
ag286
ag288
ag289
ag290
ag291
ag292
ag293
ag294
ag296
ag297
ag299
ag300
ag301
ag302
ag303
ag304
ag305
ag307
ag308
ag310
ag311
ag314
ag315
ag316
ag317
ag318
ag319
ag321
ag322
ag323
ag324
ag325
ag326
ag327
ag331
ag333
ag334
ag335
ag336
ag337
ag338
ag340
aa(lp342
g258
ag288
ag293
ag305
ag314
ag318
ag327
ag331
ag336
ag340
aasS'questions'
p343
(lp344
(Vgender
p345
VIs this person male?
p346
tp347
a(Vgender
p348
VIs this person Female?
p349
tp350
a(Vbirthplace
p351
VIs this person born in USA east coast?
p352
tp353
a(Vbirthplace
p354
VIs this person born in USA west coast?
p355
tp356
a(Vbirthplace
p357
VIs this person born in Canada?
p358
tp359
a(Vbirthplace
p360
VIs this person born in west europe?
p361
tp362
a(Vbirthplace
p363
VIs this person born in east europe?
p364
tp365
a(Vbirthplace
p366
VIs this person born in north europe?
p367
tp368
a(Vbirthplace
p369
VIs this person born in middle east?
p370
tp371
a(Vbirthplace
p372
VIs this person born in other parts?
p373
tp374
a(Vbirthplace
p375
VIs this person born in south America?
p376
tp377
a(Vnationality
p378
VIs this person a citizen of a country in Europe?
p379
tp380
a(Vnationality
p381
VIs this person a citizen of a country in Asia?
p382
tp383
a(Vnationality
p384
VIs this person a citizen of a country in America?
p385
tp386
a(Vnationality
p387
VIs this person a citizen of a country in Africa?
p388
tp389
a(Vnationality
p390
VIs this person a citizen of Australia?
p391
tp392
a(Vdegree
p393
VDoes this person have degree before college?
p394
tp395
a(Vdegree
p396
VDoes this person have bachelor degree?
p397
tp398
a(Vdegree
p399
VDoes this person have master degree?
p400
tp401
a(Vdegree
p402
VDoes this person have doctor degree?
p403
tp404
a(Vprofession
p405
VDoes this person work in entertainment industry?
p406
tp407
a(Vprofession
p408
VDoes this person a artist?
p409
tp410
a(Vprofession
p411
VIs this person a scholar?
p412
tp413
a(Vprofession
p414
VIs this persson related to sports?
p415
tp416
a(Vprofession
p417
VDoes this person make a living by writing?
p418
tp419
a(Vprofession
p420
VIs this person related to medical domain?
p421
tp422
a(Vprofession
p423
VIs this person related to finance?
p424
tp425
a(Vprofession
p426
VDoes this person have none of above profession?
p427
tp428
a(Vbirthday
p429
VIs this person born before 1950s?
p430
tp431
a(Vbirthday
p432
VIs this person born before 1930s?
p433
tp434
a(Vbirthday
p435
VIs this person born before 1910s?
p436
tp437
as.